; Function Attrs: mustprogress uwtable
define internal fastcc void @_ZN4absl18container_internal10DeallocateILm8ENS0_12_GLOBAL__N_112CheckedAllocINS0_7TrackedIiEELi7EEEEEvPT0_Pvm(ptr nocapture noundef readonly %alloc, ptr noundef %p, i64 noundef %n) unnamed_addr #3 personality ptr @__gxx_personality_v0 {
entry:
  %my_mem_alloc = alloca %"class.absl::container_internal::(anonymous namespace)::CheckedAlloc.60", align 8
  %0 = load i64, ptr %alloc, align 8
  store i64 %0, ptr %my_mem_alloc, align 8
  %state_.i = getelementptr inbounds i8, ptr %my_mem_alloc, i64 8
  %state_3.i = getelementptr inbounds i8, ptr %alloc, i64 8
  %1 = load ptr, ptr %state_3.i, align 8
  store ptr %1, ptr %state_.i, align 8
  %_M_refcount.i.i.i = getelementptr inbounds i8, ptr %my_mem_alloc, i64 16
  %_M_refcount3.i.i.i = getelementptr inbounds i8, ptr %alloc, i64 16
  %2 = load ptr, ptr %_M_refcount3.i.i.i, align 8
  store ptr %2, ptr %_M_refcount.i.i.i, align 8
  %cmp.not.i.i.i.i = icmp eq ptr %2, null
  br i1 %cmp.not.i.i.i.i, label %_ZN4absl18container_internal12_GLOBAL__N_112CheckedAllocINS0_11AlignedTypeILm8EEELi7EEC2INS0_7TrackedIiEEEERKNS2_IT_Li7EEE.exit, label %if.then.i.i.i.i

if.then.i.i.i.i:                                  ; preds = %entry
  %_M_use_count.i.i.i.i.i = getelementptr inbounds i8, ptr %2, i64 8
  %3 = load i8, ptr @__libc_single_threaded, align 1
  %tobool.i.not.i.i.i.i.i = icmp eq i8 %3, 0
  br i1 %tobool.i.not.i.i.i.i.i, label %if.else.i.i.i.i.i.i, label %if.then.i.i.i.i.i.i

if.then.i.i.i.i.i.i:                              ; preds = %if.then.i.i.i.i
  %4 = load i32, ptr %_M_use_count.i.i.i.i.i, align 4
  %add.i.i.i.i.i.i = add nsw i32 %4, 1
  store i32 %add.i.i.i.i.i.i, ptr %_M_use_count.i.i.i.i.i, align 4
  br label %_ZN4absl18container_internal12_GLOBAL__N_112CheckedAllocINS0_11AlignedTypeILm8EEELi7EEC2INS0_7TrackedIiEEEERKNS2_IT_Li7EEE.exit

if.else.i.i.i.i.i.i:                              ; preds = %if.then.i.i.i.i
  %5 = atomicrmw volatile add ptr %_M_use_count.i.i.i.i.i, i32 1 acq_rel, align 4
  br label %_ZN4absl18container_internal12_GLOBAL__N_112CheckedAllocINS0_11AlignedTypeILm8EEELi7EEC2INS0_7TrackedIiEEEERKNS2_IT_Li7EEE.exit

_ZN4absl18container_internal12_GLOBAL__N_112CheckedAllocINS0_11AlignedTypeILm8EEELi7EEC2INS0_7TrackedIiEEEERKNS2_IT_Li7EEE.exit: ; preds = %entry, %if.then.i.i.i.i.i.i, %if.else.i.i.i.i.i.i
  %sub = add i64 %n, 7
  %div1 = lshr i64 %sub, 3
  invoke fastcc void @_ZNSt16allocator_traitsIN4absl18container_internal12_GLOBAL__N_112CheckedAllocINS1_11AlignedTypeILm8EEELi7EEEE10deallocateERS6_PS5_m(ptr noundef nonnull align 8 dereferenceable(24) %my_mem_alloc, ptr noundef %p, i64 noundef %div1)
          to label %invoke.cont unwind label %lpad

invoke.cont:                                      ; preds = %_ZN4absl18container_internal12_GLOBAL__N_112CheckedAllocINS0_11AlignedTypeILm8EEELi7EEC2INS0_7TrackedIiEEEERKNS2_IT_Li7EEE.exit
  %my_mem_alloc.val2 = load ptr, ptr %_M_refcount.i.i.i, align 8
  %cmp.not.i.i.i.i3 = icmp eq ptr %my_mem_alloc.val2, null
  br i1 %cmp.not.i.i.i.i3, label %_ZN4absl18container_internal12_GLOBAL__N_112CheckedAllocINS0_11AlignedTypeILm8EEELi7EED2Ev.exit, label %if.then.i.i.i.i4

if.then.i.i.i.i4:                                 ; preds = %invoke.cont
  %_M_use_count.i.i.i.i.i5 = getelementptr inbounds i8, ptr %my_mem_alloc.val2, i64 8
  %6 = load atomic i64, ptr %_M_use_count.i.i.i.i.i5 acquire, align 8
  %cmp.i.i.i.i.i = icmp eq i64 %6, 4294967297
  %7 = trunc i64 %6 to i32
  br i1 %cmp.i.i.i.i.i, label %if.then.i.i.i.i.i, label %if.end.i.i.i.i.i

if.then.i.i.i.i.i:                                ; preds = %if.then.i.i.i.i4
  store i32 0, ptr %_M_use_count.i.i.i.i.i5, align 8
  %_M_weak_count.i.i.i.i.i = getelementptr inbounds i8, ptr %my_mem_alloc.val2, i64 12
  store i32 0, ptr %_M_weak_count.i.i.i.i.i, align 4
  %vtable.i.i.i.i.i = load ptr, ptr %my_mem_alloc.val2, align 8
  %vfn.i.i.i.i.i = getelementptr inbounds i8, ptr %vtable.i.i.i.i.i, i64 16
  %8 = load ptr, ptr %vfn.i.i.i.i.i, align 8
  tail call void %8(ptr noundef nonnull align 8 dereferenceable(16) %my_mem_alloc.val2) #27
  br label %if.end8.sink.split.i.i.i.i.i

if.end.i.i.i.i.i:                                 ; preds = %if.then.i.i.i.i4
  %9 = load i8, ptr @__libc_single_threaded, align 1
  %tobool.i.i.not.i.i.i.i.i = icmp eq i8 %9, 0
  br i1 %tobool.i.i.not.i.i.i.i.i, label %if.else.i.i.i.i.i.i8, label %if.then.i.i.i.i.i.i6

if.then.i.i.i.i.i.i6:                             ; preds = %if.end.i.i.i.i.i
  %add.i.i.i.i.i.i7 = add nsw i32 %7, -1
  store i32 %add.i.i.i.i.i.i7, ptr %_M_use_count.i.i.i.i.i5, align 4
  br label %_ZN9__gnu_cxx27__exchange_and_add_dispatchEPii.exit.i.i.i.i.i

if.else.i.i.i.i.i.i8:                             ; preds = %if.end.i.i.i.i.i
  %10 = atomicrmw volatile add ptr %_M_use_count.i.i.i.i.i5, i32 -1 acq_rel, align 4
  br label %_ZN9__gnu_cxx27__exchange_and_add_dispatchEPii.exit.i.i.i.i.i

_ZN9__gnu_cxx27__exchange_and_add_dispatchEPii.exit.i.i.i.i.i: ; preds = %if.else.i.i.i.i.i.i8, %if.then.i.i.i.i.i.i6
  %retval.i.0.i.i.i.i.i = phi i32 [ %7, %if.then.i.i.i.i.i.i6 ], [ %10, %if.else.i.i.i.i.i.i8 ]
  %cmp6.i.i.i.i.i = icmp eq i32 %retval.i.0.i.i.i.i.i, 1
  br i1 %cmp6.i.i.i.i.i, label %if.then7.i.i.i.i.i, label %_ZN4absl18container_internal12_GLOBAL__N_112CheckedAllocINS0_11AlignedTypeILm8EEELi7EED2Ev.exit

if.then7.i.i.i.i.i:                               ; preds = %_ZN9__gnu_cxx27__exchange_and_add_dispatchEPii.exit.i.i.i.i.i
  %vtable.i.i.i.i.i.i.i = load ptr, ptr %my_mem_alloc.val2, align 8
  %vfn.i.i.i.i.i.i.i = getelementptr inbounds i8, ptr %vtable.i.i.i.i.i.i.i, i64 16
  %11 = load ptr, ptr %vfn.i.i.i.i.i.i.i, align 8
  tail call void %11(ptr noundef nonnull align 8 dereferenceable(16) %my_mem_alloc.val2) #27
  %_M_weak_count.i.i.i.i.i.i.i = getelementptr inbounds i8, ptr %my_mem_alloc.val2, i64 12
  %12 = load i8, ptr @__libc_single_threaded, align 1
  %tobool.i.i.not.i.i.i.i.i.i.i = icmp eq i8 %12, 0
  br i1 %tobool.i.i.not.i.i.i.i.i.i.i, label %if.else.i.i.i.i.i.i.i.i, label %if.then.i.i.i.i.i.i.i.i

if.then.i.i.i.i.i.i.i.i:                          ; preds = %if.then7.i.i.i.i.i
  %13 = load i32, ptr %_M_weak_count.i.i.i.i.i.i.i, align 4
  %add.i.i.i.i.i.i.i.i = add nsw i32 %13, -1
  store i32 %add.i.i.i.i.i.i.i.i, ptr %_M_weak_count.i.i.i.i.i.i.i, align 4
  br label %_ZN9__gnu_cxx27__exchange_and_add_dispatchEPii.exit.i.i.i.i.i.i.i

if.else.i.i.i.i.i.i.i.i:                          ; preds = %if.then7.i.i.i.i.i
  %14 = atomicrmw volatile add ptr %_M_weak_count.i.i.i.i.i.i.i, i32 -1 acq_rel, align 4
  br label %_ZN9__gnu_cxx27__exchange_and_add_dispatchEPii.exit.i.i.i.i.i.i.i

_ZN9__gnu_cxx27__exchange_and_add_dispatchEPii.exit.i.i.i.i.i.i.i: ; preds = %if.else.i.i.i.i.i.i.i.i, %if.then.i.i.i.i.i.i.i.i
  %retval.i.0.i.i.i.i.i.i.i = phi i32 [ %13, %if.then.i.i.i.i.i.i.i.i ], [ %14, %if.else.i.i.i.i.i.i.i.i ]
  %cmp.i.i.i.i.i.i.i = icmp eq i32 %retval.i.0.i.i.i.i.i.i.i, 1
  br i1 %cmp.i.i.i.i.i.i.i, label %if.end8.sink.split.i.i.i.i.i, label %_ZN4absl18container_internal12_GLOBAL__N_112CheckedAllocINS0_11AlignedTypeILm8EEELi7EED2Ev.exit

if.end8.sink.split.i.i.i.i.i:                     ; preds = %_ZN9__gnu_cxx27__exchange_and_add_dispatchEPii.exit.i.i.i.i.i.i.i, %if.then.i.i.i.i.i
  %vtable2.i.i.i.i.i.i.i = load ptr, ptr %my_mem_alloc.val2, align 8
  %vfn3.i.i.i.i.i.i.i = getelementptr inbounds i8, ptr %vtable2.i.i.i.i.i.i.i, i64 24
  %15 = load ptr, ptr %vfn3.i.i.i.i.i.i.i, align 8
  tail call void %15(ptr noundef nonnull align 8 dereferenceable(16) %my_mem_alloc.val2) #27
  br label %_ZN4absl18container_internal12_GLOBAL__N_112CheckedAllocINS0_11AlignedTypeILm8EEELi7EED2Ev.exit

_ZN4absl18container_internal12_GLOBAL__N_112CheckedAllocINS0_11AlignedTypeILm8EEELi7EED2Ev.exit: ; preds = %invoke.cont, %_ZN9__gnu_cxx27__exchange_and_add_dispatchEPii.exit.i.i.i.i.i, %_ZN9__gnu_cxx27__exchange_and_add_dispatchEPii.exit.i.i.i.i.i.i.i, %if.end8.sink.split.i.i.i.i.i
  ret void

lpad:                                             ; preds = %_ZN4absl18container_internal12_GLOBAL__N_112CheckedAllocINS0_11AlignedTypeILm8EEELi7EEC2INS0_7TrackedIiEEEERKNS2_IT_Li7EEE.exit
  %16 = landingpad { ptr, i32 }
          cleanup
  %my_mem_alloc.val = load ptr, ptr %_M_refcount.i.i.i, align 8
  tail call fastcc void @_ZN4absl18container_internal12_GLOBAL__N_112CheckedAllocINS0_11AlignedTypeILm8EEELi7EED2Ev(ptr %my_mem_alloc.val) #27
  resume { ptr, i32 } %16
}